target datalayout = "e-m:e-p270:32:32-p271:32:32-p272:64:64-i64:64-i128:128-f80:128-n8:16:32:64-S128"
target triple = "x86_64-pc-linux-gnu"

%struct.cbuf = type { %union.pthread_mutex_t, i32, i32, i32, i32, i32, i32, i32, i32, i32, i32, ptr }
%union.pthread_mutex_t = type { %struct.__pthread_mutex_s }
%struct.__pthread_mutex_s = type { i32, i32, i32, i32, i32, i16, i16, %struct.__pthread_internal_list }
%struct.__pthread_internal_list = type { ptr, ptr }

@.str.2 = private unnamed_addr constant [29 x i8] c"%s: pthread_mutex_lock(): %m\00", align 1
@.str.3 = private unnamed_addr constant [31 x i8] c"%s: pthread_mutex_unlock(): %m\00", align 1
@__func__.cbuf_write = private unnamed_addr constant [11 x i8] c"cbuf_write\00", align 1

; Function Attrs: nounwind uwtable
define dso_local i32 @cbuf_write(ptr noundef %0, ptr noundef %1, i32 noundef %2, ptr noundef %3) #0 {
  %5 = alloca i32, align 4
  %6 = alloca ptr, align 8
  %7 = alloca ptr, align 8
  %8 = alloca i32, align 4
  %9 = alloca ptr, align 8
  %10 = alloca i32, align 4
  %11 = alloca i32, align 4
  %12 = alloca i32, align 4
  %13 = alloca i32, align 4
  store ptr %0, ptr %6, align 8
  store ptr %1, ptr %7, align 8
  store i32 %2, ptr %8, align 4
  store ptr %3, ptr %9, align 8
  call void @llvm.lifetime.start.p0(i64 4, ptr %10) #8
  %14 = load ptr, ptr %9, align 8
  %15 = icmp ne ptr %14, null
  br i1 %15, label %16, label %18

16:                                               ; preds = %4
  %17 = load ptr, ptr %9, align 8
  store i32 0, ptr %17, align 4
  br label %18

18:                                               ; preds = %16, %4
  %19 = load ptr, ptr %7, align 8
  %20 = icmp eq ptr %19, null
  br i1 %20, label %24, label %21

21:                                               ; preds = %18
  %22 = load i32, ptr %8, align 4
  %23 = icmp slt i32 %22, 0
  br i1 %23, label %24, label %26

24:                                               ; preds = %21, %18
  %25 = call ptr @__errno_location() #9
  store i32 22, ptr %25, align 4
  store i32 -1, ptr %5, align 4
  store i32 1, ptr %11, align 4
  br label %60

26:                                               ; preds = %21
  %27 = load i32, ptr %8, align 4
  %28 = icmp eq i32 %27, 0
  br i1 %28, label %29, label %30

29:                                               ; preds = %26
  store i32 0, ptr %5, align 4
  store i32 1, ptr %11, align 4
  br label %60

30:                                               ; preds = %26
  br label %31

31:                                               ; preds = %30
  call void @llvm.lifetime.start.p0(i64 4, ptr %12) #8
  %32 = load ptr, ptr %6, align 8
  %33 = getelementptr inbounds nuw %struct.cbuf, ptr %32, i32 0, i32 0
  %34 = call i32 @pthread_mutex_lock(ptr noundef %33) #8
  store i32 %34, ptr %12, align 4
  %35 = load i32, ptr %12, align 4
  %36 = icmp ne i32 %35, 0
  br i1 %36, label %37, label %40

37:                                               ; preds = %31
  %38 = load i32, ptr %12, align 4
  %39 = call ptr @__errno_location() #9
  store i32 %38, ptr %39, align 4
  call void (ptr, ...) @fatal_abort(ptr noundef @.str.2, ptr noundef @__func__.cbuf_write) #10
  unreachable

40:                                               ; preds = %31
  call void @llvm.lifetime.end.p0(i64 4, ptr %12) #8
  br label %41

41:                                               ; preds = %40
  br label %42

42:                                               ; preds = %41
  %43 = load ptr, ptr %6, align 8
  %44 = load i32, ptr %8, align 4
  %45 = load ptr, ptr %9, align 8
  %46 = call i32 @cbuf_writer(ptr noundef %43, i32 noundef %44, ptr noundef @cbuf_get_mem, ptr noundef %7, ptr noundef %45)
  store i32 %46, ptr %10, align 4
  br label %47

47:                                               ; preds = %42
  call void @llvm.lifetime.start.p0(i64 4, ptr %13) #8
  %48 = load ptr, ptr %6, align 8
  %49 = getelementptr inbounds nuw %struct.cbuf, ptr %48, i32 0, i32 0
  %50 = call i32 @pthread_mutex_unlock(ptr noundef %49) #8
  store i32 %50, ptr %13, align 4
  %51 = load i32, ptr %13, align 4
  %52 = icmp ne i32 %51, 0
  br i1 %52, label %53, label %56

53:                                               ; preds = %47
  %54 = load i32, ptr %13, align 4
  %55 = call ptr @__errno_location() #9
  store i32 %54, ptr %55, align 4
  call void (ptr, ...) @fatal_abort(ptr noundef @.str.3, ptr noundef @__func__.cbuf_write) #10
  unreachable

56:                                               ; preds = %47
  call void @llvm.lifetime.end.p0(i64 4, ptr %13) #8
  br label %57

57:                                               ; preds = %56
  br label %58

58:                                               ; preds = %57
  %59 = load i32, ptr %10, align 4
  store i32 %59, ptr %5, align 4
  store i32 1, ptr %11, align 4
  br label %60

60:                                               ; preds = %58, %29, %24
  call void @llvm.lifetime.end.p0(i64 4, ptr %10) #8
  %61 = load i32, ptr %5, align 4
  ret i32 %61
}