; Function Attrs: nounwind uwtable
define dso_local i32 @cbuf_write(ptr noundef %0, ptr noundef %1, i32 noundef %2, ptr noundef captures(address_is_null) %3) local_unnamed_addr #0 {
  %5 = alloca ptr, align 8
  store ptr %1, ptr %5, align 8
  %.not = icmp eq ptr %3, null
  br i1 %.not, label %7, label %6

6:                                                ; preds = %4
  store i32 0, ptr %3, align 4
  br label %7

7:                                                ; preds = %6, %4
  %8 = icmp eq ptr %1, null
  %9 = icmp slt i32 %2, 0
  %or.cond = or i1 %8, %9
  br i1 %or.cond, label %10, label %12

10:                                               ; preds = %7
  %11 = tail call ptr @__errno_location() #14
  store i32 22, ptr %11, align 4
  br label %23

12:                                               ; preds = %7
  %13 = icmp eq i32 %2, 0
  br i1 %13, label %23, label %14

14:                                               ; preds = %12
  %15 = tail call i32 @pthread_mutex_lock(ptr noundef %0) #15
  %.not19 = icmp eq i32 %15, 0
  br i1 %.not19, label %18, label %16

16:                                               ; preds = %14
  %17 = tail call ptr @__errno_location() #14
  store i32 %15, ptr %17, align 4
  tail call void (ptr, ...) @fatal_abort(ptr noundef nonnull @.str.2, ptr noundef nonnull @__func__.cbuf_write) #16
  unreachable

18:                                               ; preds = %14
  %19 = call fastcc i32 @cbuf_writer(ptr noundef %0, i32 noundef %2, ptr noundef nonnull @cbuf_get_mem, ptr noundef %5, ptr noundef %3)
  %20 = call i32 @pthread_mutex_unlock(ptr noundef %0) #15
  %.not20 = icmp eq i32 %20, 0
  br i1 %.not20, label %23, label %21

21:                                               ; preds = %18
  %22 = tail call ptr @__errno_location() #14
  store i32 %20, ptr %22, align 4
  call void (ptr, ...) @fatal_abort(ptr noundef nonnull @.str.3, ptr noundef nonnull @__func__.cbuf_write) #16
  unreachable

23:                                               ; preds = %18, %12, %10
  %.0 = phi i32 [ -1, %10 ], [ 0, %12 ], [ %19, %18 ]
  ret i32 %.0
}